; Function Attrs: nounwind uwtable
define noalias nonnull ptr @l_Lake_instInhabitedFacetConfig___boxed(ptr noundef %0) local_unnamed_addr #0 {
  %2 = load ptr, ptr @l_Lake_instInhabitedFacetConfig___closed__1, align 8, !tbaa !4
  %3 = load ptr, ptr @l_Lake_instInhabitedFacetConfig___closed__2, align 8, !tbaa !4
  tail call void @lean_inc_heartbeat() #5
  %4 = tail call noalias ptr @mi_malloc_small(i64 noundef 48) #5
  %5 = icmp eq ptr %4, null
  br i1 %5, label %6, label %l_Lake_instInhabitedFacetConfig.exit

6:                                                ; preds = %1
  tail call void @lean_internal_panic_out_of_memory() #6
  unreachable

l_Lake_instInhabitedFacetConfig.exit:             ; preds = %1
  %7 = getelementptr inbounds nuw i8, ptr %4, i64 4
  %8 = getelementptr inbounds nuw i8, ptr %4, i64 40
  store i64 0, ptr %8, align 8, !tbaa !11
  store i32 1, ptr %4, align 4, !tbaa !8
  store i32 262192, ptr %7, align 4
  %9 = getelementptr inbounds nuw i8, ptr %4, i64 8
  store ptr inttoptr (i64 1 to ptr), ptr %9, align 8, !tbaa !4
  %10 = getelementptr inbounds nuw i8, ptr %4, i64 16
  store ptr %2, ptr %10, align 8, !tbaa !4
  %11 = getelementptr inbounds nuw i8, ptr %4, i64 24
  store ptr inttoptr (i64 1 to ptr), ptr %11, align 8, !tbaa !4
  %12 = getelementptr inbounds nuw i8, ptr %4, i64 32
  store ptr %3, ptr %12, align 8, !tbaa !4
  %13 = ptrtoint ptr %0 to i64
  %14 = and i64 %13, 1
  %.not = icmp eq i64 %14, 0
  br i1 %.not, label %15, label %lean_dec.exit

15:                                               ; preds = %l_Lake_instInhabitedFacetConfig.exit
  %16 = load i32, ptr %0, align 4, !tbaa !8
  %17 = icmp sgt i32 %16, 1
  br i1 %17, label %18, label %20, !prof !13

18:                                               ; preds = %15
  %19 = add nsw i32 %16, -1
  store i32 %19, ptr %0, align 4, !tbaa !8
  br label %lean_dec.exit

20:                                               ; preds = %15
  %.not.i = icmp eq i32 %16, 0
  br i1 %.not.i, label %lean_dec.exit, label %21

21:                                               ; preds = %20
  tail call void @lean_dec_ref_cold(ptr noundef nonnull %0) #5
  br label %lean_dec.exit

lean_dec.exit:                                    ; preds = %21, %20, %18, %l_Lake_instInhabitedFacetConfig.exit
  ret ptr %4
}